target datalayout = "e-m:e-p270:32:32-p271:32:32-p272:64:64-i64:64-i128:128-f80:128-n8:16:32:64-S128"
target triple = "x86_64-pc-linux-gnu"

; Function Attrs: nounwind uwtable
define internal double @AccumulateLSIM(ptr noundef %0, i32 noundef %1, ptr noundef %2, i32 noundef %3, i32 noundef %4, i32 noundef %5) #0 {
  %7 = alloca ptr, align 8
  %8 = alloca i32, align 4
  %9 = alloca ptr, align 8
  %10 = alloca i32, align 4
  %11 = alloca i32, align 4
  %12 = alloca i32, align 4
  %13 = alloca i32, align 4
  %14 = alloca i32, align 4
  %15 = alloca double, align 8
  %16 = alloca i32, align 4
  %17 = alloca i32, align 4
  %18 = alloca i32, align 4
  %19 = alloca i32, align 4
  %20 = alloca double, align 8
  %21 = alloca double, align 8
  %22 = alloca i32, align 4
  %23 = alloca i32, align 4
  %24 = alloca ptr, align 8
  %25 = alloca double, align 8
  %26 = alloca double, align 8
  store ptr %0, ptr %7, align 8
  store i32 %1, ptr %8, align 4
  store ptr %2, ptr %9, align 8
  store i32 %3, ptr %10, align 4
  store i32 %4, ptr %11, align 4
  store i32 %5, ptr %12, align 4
  store double 0.000000e+00, ptr %15, align 8
  store i32 0, ptr %14, align 4
  br label %27

27:                                               ; preds = %142, %6
  %28 = load i32, ptr %14, align 4
  %29 = load i32, ptr %12, align 4
  %30 = icmp slt i32 %28, %29
  br i1 %30, label %31, label %145

31:                                               ; preds = %27
  %32 = load i32, ptr %14, align 4
  %33 = sub nsw i32 %32, 2
  %34 = icmp slt i32 %33, 0
  br i1 %34, label %35, label %36

35:                                               ; preds = %31
  br label %39

36:                                               ; preds = %31
  %37 = load i32, ptr %14, align 4
  %38 = sub nsw i32 %37, 2
  br label %39

39:                                               ; preds = %36, %35
  %40 = phi i32 [ 0, %35 ], [ %38, %36 ]
  store i32 %40, ptr %16, align 4
  %41 = load i32, ptr %14, align 4
  %42 = add nsw i32 %41, 2
  %43 = add nsw i32 %42, 1
  %44 = load i32, ptr %12, align 4
  %45 = icmp sge i32 %43, %44
  br i1 %45, label %46, label %48

46:                                               ; preds = %39
  %47 = load i32, ptr %12, align 4
  br label %52

48:                                               ; preds = %39
  %49 = load i32, ptr %14, align 4
  %50 = add nsw i32 %49, 2
  %51 = add nsw i32 %50, 1
  br label %52

52:                                               ; preds = %48, %46
  %53 = phi i32 [ %47, %46 ], [ %51, %48 ]
  store i32 %53, ptr %17, align 4
  store i32 0, ptr %13, align 4
  br label %54

54:                                               ; preds = %138, %52
  %55 = load i32, ptr %13, align 4
  %56 = load i32, ptr %11, align 4
  %57 = icmp slt i32 %55, %56
  br i1 %57, label %58, label %141

58:                                               ; preds = %54
  %59 = load i32, ptr %13, align 4
  %60 = sub nsw i32 %59, 2
  %61 = icmp slt i32 %60, 0
  br i1 %61, label %62, label %63

62:                                               ; preds = %58
  br label %66

63:                                               ; preds = %58
  %64 = load i32, ptr %13, align 4
  %65 = sub nsw i32 %64, 2
  br label %66

66:                                               ; preds = %63, %62
  %67 = phi i32 [ 0, %62 ], [ %65, %63 ]
  store i32 %67, ptr %18, align 4
  %68 = load i32, ptr %13, align 4
  %69 = add nsw i32 %68, 2
  %70 = add nsw i32 %69, 1
  %71 = load i32, ptr %11, align 4
  %72 = icmp sge i32 %70, %71
  br i1 %72, label %73, label %75

73:                                               ; preds = %66
  %74 = load i32, ptr %11, align 4
  br label %79

75:                                               ; preds = %66
  %76 = load i32, ptr %13, align 4
  %77 = add nsw i32 %76, 2
  %78 = add nsw i32 %77, 1
  br label %79

79:                                               ; preds = %75, %73
  %80 = phi i32 [ %74, %73 ], [ %78, %75 ]
  store i32 %80, ptr %19, align 4
  store double 6.502500e+04, ptr %20, align 8
  %81 = load ptr, ptr %9, align 8
  %82 = load i32, ptr %14, align 4
  %83 = load i32, ptr %10, align 4
  %84 = mul nsw i32 %82, %83
  %85 = load i32, ptr %13, align 4
  %86 = add nsw i32 %84, %85
  %87 = sext i32 %86 to i64
  %88 = getelementptr inbounds i8, ptr %81, i64 %87
  %89 = load i8, ptr %88, align 1
  %90 = uitofp i8 %89 to double
  store double %90, ptr %21, align 8
  %91 = load i32, ptr %16, align 4
  store i32 %91, ptr %23, align 4
  br label %92

92:                                               ; preds = %131, %79
  %93 = load i32, ptr %23, align 4
  %94 = load i32, ptr %17, align 4
  %95 = icmp slt i32 %93, %94
  br i1 %95, label %96, label %134

96:                                               ; preds = %92
  %97 = load ptr, ptr %7, align 8
  %98 = load i32, ptr %23, align 4
  %99 = load i32, ptr %8, align 4
  %100 = mul nsw i32 %98, %99
  %101 = sext i32 %100 to i64
  %102 = getelementptr inbounds i8, ptr %97, i64 %101
  store ptr %102, ptr %24, align 8
  %103 = load i32, ptr %18, align 4
  store i32 %103, ptr %22, align 4
  br label %104

104:                                              ; preds = %127, %96
  %105 = load i32, ptr %22, align 4
  %106 = load i32, ptr %19, align 4
  %107 = icmp slt i32 %105, %106
  br i1 %107, label %108, label %130

108:                                              ; preds = %104
  %109 = load ptr, ptr %24, align 8
  %110 = load i32, ptr %22, align 4
  %111 = sext i32 %110 to i64
  %112 = getelementptr inbounds i8, ptr %109, i64 %111
  %113 = load i8, ptr %112, align 1
  %114 = zext i8 %113 to i32
  %115 = sitofp i32 %114 to double
  %116 = load double, ptr %21, align 8
  %117 = fsub double %115, %116
  store double %117, ptr %25, align 8
  %118 = load double, ptr %25, align 8
  %119 = load double, ptr %25, align 8
  %120 = fmul double %118, %119
  store double %120, ptr %26, align 8
  %121 = load double, ptr %26, align 8
  %122 = load double, ptr %20, align 8
  %123 = fcmp olt double %121, %122
  br i1 %123, label %124, label %126

124:                                              ; preds = %108
  %125 = load double, ptr %26, align 8
  store double %125, ptr %20, align 8
  br label %126

126:                                              ; preds = %124, %108
  br label %127

127:                                              ; preds = %126
  %128 = load i32, ptr %22, align 4
  %129 = add nsw i32 %128, 1
  store i32 %129, ptr %22, align 4
  br label %104, !llvm.loop !16

130:                                              ; preds = %104
  br label %131

131:                                              ; preds = %130
  %132 = load i32, ptr %23, align 4
  %133 = add nsw i32 %132, 1
  store i32 %133, ptr %23, align 4
  br label %92, !llvm.loop !17

134:                                              ; preds = %92
  %135 = load double, ptr %20, align 8
  %136 = load double, ptr %15, align 8
  %137 = fadd double %136, %135
  store double %137, ptr %15, align 8
  br label %138

138:                                              ; preds = %134
  %139 = load i32, ptr %13, align 4
  %140 = add nsw i32 %139, 1
  store i32 %140, ptr %13, align 4
  br label %54, !llvm.loop !18

141:                                              ; preds = %54
  br label %142

142:                                              ; preds = %141
  %143 = load i32, ptr %14, align 4
  %144 = add nsw i32 %143, 1
  store i32 %144, ptr %14, align 4
  br label %27, !llvm.loop !19

145:                                              ; preds = %27
  %146 = load double, ptr %15, align 8
  ret double %146
}